; Function Attrs: mustprogress uwtable
define internal noundef nonnull ptr @_ZL23__ncnn_modelbin_load_1dP17__ncnn_modelbin_tii(ptr nocapture noundef readonly %0, i32 noundef %1, i32 noundef %2) #1 personality ptr @__gxx_personality_v0 {
  %4 = tail call noalias noundef nonnull dereferenceable(72) ptr @_Znwm(i64 noundef 72) #24
  %5 = load ptr, ptr %0, align 8
  %6 = load ptr, ptr %5, align 8
  %7 = getelementptr inbounds i8, ptr %6, i64 16
  %8 = load ptr, ptr %7, align 8
  invoke void %8(ptr dead_on_unwind nonnull writable sret(%"class.ncnn::Mat") align 8 %4, ptr noundef nonnull align 8 dereferenceable(8) %5, i32 noundef %1, i32 noundef %2)
          to label %9 unwind label %10

9:                                                ; preds = %3
  ret ptr %4

10:                                               ; preds = %3
  %11 = landingpad { ptr, i32 }
          cleanup
  tail call void @_ZdlPvm(ptr noundef nonnull %4, i64 noundef 72) #25
  resume { ptr, i32 } %11
}